target datalayout = "e-m:e-p270:32:32-p271:32:32-p272:64:64-i64:64-i128:128-f80:128-n8:16:32:64-S128"
target triple = "x86_64-pc-linux-gnu"

%struct.jpeg_common_struct = type { ptr, ptr, ptr, ptr, i32, i32 }
%struct.jpeg_error_mgr = type { ptr, ptr, ptr, ptr, ptr, i32, %union.anon, i32, i64, ptr, i32, ptr, i32, i32 }
%union.anon = type { [8 x i32], [48 x i8] }
%struct.my_memory_mgr = type { %struct.jpeg_memory_mgr, [2 x ptr], [2 x ptr], ptr, ptr, i64, i32 }
%struct.jpeg_memory_mgr = type { ptr, ptr, ptr, ptr, ptr, ptr, ptr, ptr, ptr, ptr, ptr, i64, i64 }
%struct.jvirt_sarray_control = type { ptr, i32, i32, i32, i32, i32, i32, i32, i32, i32, i32, ptr, %struct.backing_store_struct }
%struct.backing_store_struct = type { ptr, ptr, ptr, ptr, [64 x i8] }

; Function Attrs: nounwind uwtable
define internal ptr @request_virt_sarray(ptr noundef %0, i32 noundef %1, i32 noundef %2, i32 noundef %3, i32 noundef %4, i32 noundef %5) #0 {
  %7 = alloca ptr, align 8
  %8 = alloca i32, align 4
  %9 = alloca i32, align 4
  %10 = alloca i32, align 4
  %11 = alloca i32, align 4
  %12 = alloca i32, align 4
  %13 = alloca ptr, align 8
  %14 = alloca ptr, align 8
  store ptr %0, ptr %7, align 8, !tbaa !3
  store i32 %1, ptr %8, align 4, !tbaa !40
  store i32 %2, ptr %9, align 4, !tbaa !40
  store i32 %3, ptr %10, align 4, !tbaa !40
  store i32 %4, ptr %11, align 4, !tbaa !40
  store i32 %5, ptr %12, align 4, !tbaa !40
  call void @llvm.lifetime.start.p0(i64 8, ptr %13) #8
  %15 = load ptr, ptr %7, align 8, !tbaa !3
  %16 = getelementptr inbounds nuw %struct.jpeg_common_struct, ptr %15, i32 0, i32 1
  %17 = load ptr, ptr %16, align 8, !tbaa !8
  store ptr %17, ptr %13, align 8, !tbaa !21
  call void @llvm.lifetime.start.p0(i64 8, ptr %14) #8
  %18 = load i32, ptr %8, align 4, !tbaa !40
  %19 = icmp ne i32 %18, 1
  br i1 %19, label %20, label %37

20:                                               ; preds = %6
  %21 = load ptr, ptr %7, align 8, !tbaa !3
  %22 = getelementptr inbounds nuw %struct.jpeg_common_struct, ptr %21, i32 0, i32 0
  %23 = load ptr, ptr %22, align 8, !tbaa !16
  %24 = getelementptr inbounds nuw %struct.jpeg_error_mgr, ptr %23, i32 0, i32 5
  store i32 14, ptr %24, align 8, !tbaa !17
  %25 = load i32, ptr %8, align 4, !tbaa !40
  %26 = load ptr, ptr %7, align 8, !tbaa !3
  %27 = getelementptr inbounds nuw %struct.jpeg_common_struct, ptr %26, i32 0, i32 0
  %28 = load ptr, ptr %27, align 8, !tbaa !16
  %29 = getelementptr inbounds nuw %struct.jpeg_error_mgr, ptr %28, i32 0, i32 6
  %30 = getelementptr inbounds [8 x i32], ptr %29, i64 0, i64 0
  store i32 %25, ptr %30, align 4, !tbaa !22
  %31 = load ptr, ptr %7, align 8, !tbaa !3
  %32 = getelementptr inbounds nuw %struct.jpeg_common_struct, ptr %31, i32 0, i32 0
  %33 = load ptr, ptr %32, align 8, !tbaa !16
  %34 = getelementptr inbounds nuw %struct.jpeg_error_mgr, ptr %33, i32 0, i32 0
  %35 = load ptr, ptr %34, align 8, !tbaa !20
  %36 = load ptr, ptr %7, align 8, !tbaa !3
  call void %35(ptr noundef %36)
  br label %37

37:                                               ; preds = %20, %6
  %38 = load ptr, ptr %7, align 8, !tbaa !3
  %39 = load i32, ptr %8, align 4, !tbaa !40
  %40 = call ptr @alloc_small(ptr noundef %38, i32 noundef %39, i64 noundef 152)
  store ptr %40, ptr %14, align 8, !tbaa !106
  %41 = load ptr, ptr %14, align 8, !tbaa !106
  %42 = getelementptr inbounds nuw %struct.jvirt_sarray_control, ptr %41, i32 0, i32 0
  store ptr null, ptr %42, align 8, !tbaa !107
  %43 = load i32, ptr %11, align 4, !tbaa !40
  %44 = load ptr, ptr %14, align 8, !tbaa !106
  %45 = getelementptr inbounds nuw %struct.jvirt_sarray_control, ptr %44, i32 0, i32 1
  store i32 %43, ptr %45, align 8, !tbaa !111
  %46 = load i32, ptr %10, align 4, !tbaa !40
  %47 = load ptr, ptr %14, align 8, !tbaa !106
  %48 = getelementptr inbounds nuw %struct.jvirt_sarray_control, ptr %47, i32 0, i32 2
  store i32 %46, ptr %48, align 4, !tbaa !112
  %49 = load i32, ptr %12, align 4, !tbaa !40
  %50 = load ptr, ptr %14, align 8, !tbaa !106
  %51 = getelementptr inbounds nuw %struct.jvirt_sarray_control, ptr %50, i32 0, i32 3
  store i32 %49, ptr %51, align 8, !tbaa !113
  %52 = load i32, ptr %9, align 4, !tbaa !40
  %53 = load ptr, ptr %14, align 8, !tbaa !106
  %54 = getelementptr inbounds nuw %struct.jvirt_sarray_control, ptr %53, i32 0, i32 8
  store i32 %52, ptr %54, align 4, !tbaa !114
  %55 = load ptr, ptr %14, align 8, !tbaa !106
  %56 = getelementptr inbounds nuw %struct.jvirt_sarray_control, ptr %55, i32 0, i32 10
  store i32 0, ptr %56, align 4, !tbaa !115
  %57 = load ptr, ptr %13, align 8, !tbaa !21
  %58 = getelementptr inbounds nuw %struct.my_memory_mgr, ptr %57, i32 0, i32 3
  %59 = load ptr, ptr %58, align 8, !tbaa !47
  %60 = load ptr, ptr %14, align 8, !tbaa !106
  %61 = getelementptr inbounds nuw %struct.jvirt_sarray_control, ptr %60, i32 0, i32 11
  store ptr %59, ptr %61, align 8, !tbaa !116
  %62 = load ptr, ptr %14, align 8, !tbaa !106
  %63 = load ptr, ptr %13, align 8, !tbaa !21
  %64 = getelementptr inbounds nuw %struct.my_memory_mgr, ptr %63, i32 0, i32 3
  store ptr %62, ptr %64, align 8, !tbaa !47
  %65 = load ptr, ptr %14, align 8, !tbaa !106
  call void @llvm.lifetime.end.p0(i64 8, ptr %14) #8
  call void @llvm.lifetime.end.p0(i64 8, ptr %13) #8
  ret ptr %65
}